ARM GAS  C:\Users\guraz\AppData\Local\Temp\ccj1po86.s 			page 1


   1              		.syntax unified
   2              		.cpu cortex-m3
   3              		.fpu softvfp
   4              		.eabi_attribute 20, 1
   5              		.eabi_attribute 21, 1
   6              		.eabi_attribute 23, 3
   7              		.eabi_attribute 24, 1
   8              		.eabi_attribute 25, 1
   9              		.eabi_attribute 26, 1
  10              		.eabi_attribute 30, 1
  11              		.eabi_attribute 34, 1
  12              		.eabi_attribute 18, 4
  13              		.thumb
  14              		.syntax unified
  15              		.file	"main.c"
  16              		.text
  17              	.Ltext0:
  18              		.cfi_sections	.debug_frame
  19              		.section	.text.medicion,"ax",%progbits
  20              		.align	2
  21              		.global	medicion
  22              		.thumb
  23              		.thumb_func
  24              		.type	medicion, %function
  25              	medicion:
  26              	.LFB64:
  27              		.file 1 "main.c"
   1:main.c        **** /* ========================================
   2:main.c        ****  *
   3:main.c        ****  * Copyright YOUR COMPANY, THE YEAR
   4:main.c        ****  * All Rights Reserved
   5:main.c        ****  * UNPUBLISHED, LICENSED SOFTWARE.
   6:main.c        ****  *
   7:main.c        ****  * CONFIDENTIAL AND PROPRIETARY INFORMATION
   8:main.c        ****  * WHICH IS THE PROPERTY OF your company.
   9:main.c        ****  *
  10:main.c        ****  * ========================================
  11:main.c        **** */
  12:main.c        **** #include "project.h"
  13:main.c        **** #include "stdio.h"
  14:main.c        **** #include "math.h"
  15:main.c        **** #include "stdlib.h"
  16:main.c        **** 
  17:main.c        **** int32 C,V_I, V_V;
  18:main.c        **** char Text[20];
  19:main.c        **** char UART_Data_RX;
  20:main.c        **** int k;
  21:main.c        **** 
  22:main.c        **** void medicion(){
  28              		.loc 1 22 0
  29              		.cfi_startproc
  30              		@ args = 0, pretend = 0, frame = 0
  31              		@ frame_needed = 0, uses_anonymous_args = 0
  32 0000 10B5     		push	{r4, lr}
  33              		.cfi_def_cfa_offset 8
  34              		.cfi_offset 4, -8
  35              		.cfi_offset 14, -4
ARM GAS  C:\Users\guraz\AppData\Local\Temp\ccj1po86.s 			page 2


  23:main.c        **** //     ADC_SelectConfiguration(1,1); //Configuración para corriente
  24:main.c        ****     //Lee el voltaje de offset
  25:main.c        **** //    AMux_FastSelect(1); //offset
  26:main.c        **** //    ADC_StartConvert();
  27:main.c        **** //    ADC_IsEndConversion(ADC_WAIT_FOR_RESULT);
  28:main.c        **** //    C =  ADC_Read32();
  29:main.c        **** //    ADC_StopConvert();
  30:main.c        **** 
  31:main.c        ****     //Lee el voltaje para la corriente
  32:main.c        **** //    AMux_FastSelect(0); //corriente
  33:main.c        **** //    ADC_StartConvert();
  34:main.c        **** //    ADC_IsEndConversion(ADC_WAIT_FOR_RESULT);
  35:main.c        **** //    C =  ADC_Read32() - C; //Resta el voltaje de offset
  36:main.c        **** //    ADC_StopConvert();
  37:main.c        ****     
  38:main.c        **** //    V_I = ADC_CountsTo_uVolts(C);
  39:main.c        ****        
  40:main.c        **** //    ADC_SelectConfiguration(2,1); //Configuración del voltaje
  41:main.c        **** 
  42:main.c        ****     //Lee el voltaje de offset del voltaje
  43:main.c        **** //    AMux_FastSelect(3); //offset
  44:main.c        **** //    ADC_StartConvert();
  45:main.c        **** //    ADC_IsEndConversion(ADC_WAIT_FOR_RESULT);
  46:main.c        **** //    C =  ADC_Read32();
  47:main.c        **** //    ADC_StopConvert();
  48:main.c        **** 
  49:main.c        ****     //Lee el voltaje del voltaje
  50:main.c        **** //    AMux_FastSelect(2); //voltaje
  51:main.c        **** //    ADC_StartConvert();
  52:main.c        **** //    ADC_IsEndConversion(ADC_WAIT_FOR_RESULT);
  53:main.c        **** //    C =  ADC_Read32() - C; //Resta el voltaje de offset
  54:main.c        **** //    ADC_StopConvert();
  55:main.c        ****     
  56:main.c        **** //    V_V = ADC_CountsTo_uVolts(C);
  57:main.c        ****     
  58:main.c        **** //    sprintf(Text,"%ld,",V_I); //Convierte a texto
  59:main.c        **** //    UART_PutString(Text);
  60:main.c        ****       V_V =999;   
  36              		.loc 1 60 0
  37 0002 40F2E732 		movw	r2, #999
  38 0006 074B     		ldr	r3, .L3
  39 0008 1A60     		str	r2, [r3]
  61:main.c        ****     sprintf(Text,"%ld",V_V); //Convierte a texto
  40              		.loc 1 61 0
  41 000a 074C     		ldr	r4, .L3+4
  42 000c 0749     		ldr	r1, .L3+8
  43 000e 2046     		mov	r0, r4
  44 0010 FFF7FEFF 		bl	sprintf
  45              	.LVL0:
  62:main.c        ****     UART_PutString(Text);
  46              		.loc 1 62 0
  47 0014 2046     		mov	r0, r4
  48 0016 FFF7FEFF 		bl	UART_PutString
  49              	.LVL1:
  63:main.c        ****     
  64:main.c        ****     UART_PutChar(10);//Envia un enter
  50              		.loc 1 64 0
ARM GAS  C:\Users\guraz\AppData\Local\Temp\ccj1po86.s 			page 3


  51 001a 0A20     		movs	r0, #10
  52 001c FFF7FEFF 		bl	UART_PutChar
  53              	.LVL2:
  54 0020 10BD     		pop	{r4, pc}
  55              	.L4:
  56 0022 00BF     		.align	2
  57              	.L3:
  58 0024 00000000 		.word	V_V
  59 0028 00000000 		.word	Text
  60 002c 00000000 		.word	.LC0
  61              		.cfi_endproc
  62              	.LFE64:
  63              		.size	medicion, .-medicion
  64              		.section	.text.main,"ax",%progbits
  65              		.align	2
  66              		.global	main
  67              		.thumb
  68              		.thumb_func
  69              		.type	main, %function
  70              	main:
  71              	.LFB65:
  65:main.c        **** }
  66:main.c        **** 
  67:main.c        **** int main(void)
  68:main.c        **** {
  72              		.loc 1 68 0
  73              		.cfi_startproc
  74              		@ Volatile: function does not return.
  75              		@ args = 0, pretend = 0, frame = 0
  76              		@ frame_needed = 0, uses_anonymous_args = 0
  77 0000 08B5     		push	{r3, lr}
  78              		.cfi_def_cfa_offset 8
  79              		.cfi_offset 3, -8
  80              		.cfi_offset 14, -4
  69:main.c        ****     CyGlobalIntEnable; /* Enable global interrupts. */
  81              		.loc 1 69 0
  82              		.syntax unified
  83              	@ 69 "main.c" 1
  84 0002 62B6     		CPSIE   i
  85              	@ 0 "" 2
  70:main.c        ****     UART_Start(); //Inicializo el puerto serie
  86              		.loc 1 70 0
  87              		.thumb
  88              		.syntax unified
  89 0004 FFF7FEFF 		bl	UART_Start
  90              	.LVL3:
  91              	.L6:
  71:main.c        **** 
  72:main.c        **** 
  73:main.c        ****     for(;;)
  74:main.c        ****     {
  75:main.c        ****         
  76:main.c        ****         
  77:main.c        ****                medicion();
  92              		.loc 1 77 0 discriminator 1
  93 0008 FFF7FEFF 		bl	medicion
  94              	.LVL4:
ARM GAS  C:\Users\guraz\AppData\Local\Temp\ccj1po86.s 			page 4


  78:main.c        ****                LED_Write(1);      
  95              		.loc 1 78 0 discriminator 1
  96 000c 0120     		movs	r0, #1
  97 000e FFF7FEFF 		bl	LED_Write
  98              	.LVL5:
  79:main.c        ****                CyDelay(100);
  99              		.loc 1 79 0 discriminator 1
 100 0012 6420     		movs	r0, #100
 101 0014 FFF7FEFF 		bl	CyDelay
 102              	.LVL6:
  80:main.c        ****                LED_Write(0);
 103              		.loc 1 80 0 discriminator 1
 104 0018 0020     		movs	r0, #0
 105 001a FFF7FEFF 		bl	LED_Write
 106              	.LVL7:
  81:main.c        ****                CyDelay(100);
 107              		.loc 1 81 0 discriminator 1
 108 001e 6420     		movs	r0, #100
 109 0020 FFF7FEFF 		bl	CyDelay
 110              	.LVL8:
 111 0024 F0E7     		b	.L6
 112              		.cfi_endproc
 113              	.LFE65:
 114              		.size	main, .-main
 115              		.comm	k,4,4
 116              		.comm	UART_Data_RX,1,1
 117              		.comm	Text,20,4
 118              		.comm	V_V,4,4
 119              		.comm	V_I,4,4
 120              		.comm	C,4,4
 121 0026 00BF     		.section	.rodata.str1.4,"aMS",%progbits,1
 122              		.align	2
 123              	.LC0:
 124 0000 256C6400 		.ascii	"%ld\000"
 125              		.text
 126              	.Letext0:
 127              		.file 2 "c:\\program files (x86)\\cypress\\psoc creator\\4.2\\psoc creator\\import\\gnu\\arm\\5.4.
 128              		.file 3 "c:\\program files (x86)\\cypress\\psoc creator\\4.2\\psoc creator\\import\\gnu\\arm\\5.4.
 129              		.file 4 "Generated_Source\\PSoC5/cytypes.h"
 130              		.file 5 "Generated_Source\\PSoC5/core_cm3.h"
 131              		.file 6 "c:\\program files (x86)\\cypress\\psoc creator\\4.2\\psoc creator\\import\\gnu\\arm\\5.4.
 132              		.file 7 "Generated_Source\\PSoC5/UART.h"
 133              		.file 8 "Generated_Source\\PSoC5/LED.h"
 134              		.file 9 "Generated_Source\\PSoC5/CyLib.h"